target datalayout = "e-m:e-p270:32:32-p271:32:32-p272:64:64-i64:64-i128:128-f80:128-n8:16:32:64-S128"
target triple = "x86_64-pc-linux-gnu"

@.str.17 = private unnamed_addr constant [13 x i8] c"DRAIN+REMOVE\00", align 1
@.str.18 = private unnamed_addr constant [6 x i8] c"DRAIN\00", align 1
@.str.25 = private unnamed_addr constant [55 x i8] c"We need a cluster federation state string to translate\00", align 1
@.str.26 = private unnamed_addr constant [7 x i8] c"Active\00", align 1
@.str.27 = private unnamed_addr constant [9 x i8] c"Inactive\00", align 1

; Function Attrs: nounwind uwtable
define dso_local i32 @str_2_cluster_fed_states(ptr noundef %0) #0 {
  %2 = alloca i32, align 4
  %3 = alloca ptr, align 8
  %4 = alloca i32, align 4
  %5 = alloca i32, align 4
  store ptr %0, ptr %3, align 8
  call void @llvm.lifetime.start.p0(i64 4, ptr %4) #10
  store i32 0, ptr %4, align 4
  %6 = load ptr, ptr %3, align 8
  %7 = icmp ne ptr %6, null
  br i1 %7, label %10, label %8

8:                                                ; preds = %1
  %9 = call i32 (ptr, ...) @error(ptr noundef @.str.25)
  store i32 -1, ptr %2, align 4
  store i32 1, ptr %5, align 4
  br label %47

10:                                               ; preds = %1
  %11 = load ptr, ptr %3, align 8
  %12 = load ptr, ptr %3, align 8
  %13 = call i64 @strlen(ptr noundef %12) #11
  %14 = call i32 @xstrncasecmp(ptr noundef %11, ptr noundef @.str.26, i64 noundef %13)
  %15 = icmp ne i32 %14, 0
  br i1 %15, label %17, label %16

16:                                               ; preds = %10
  store i32 1, ptr %4, align 4
  br label %45

17:                                               ; preds = %10
  %18 = load ptr, ptr %3, align 8
  %19 = load ptr, ptr %3, align 8
  %20 = call i64 @strlen(ptr noundef %19) #11
  %21 = call i32 @xstrncasecmp(ptr noundef %18, ptr noundef @.str.27, i64 noundef %20)
  %22 = icmp ne i32 %21, 0
  br i1 %22, label %24, label %23

23:                                               ; preds = %17
  store i32 2, ptr %4, align 4
  br label %44

24:                                               ; preds = %17
  %25 = load ptr, ptr %3, align 8
  %26 = load ptr, ptr %3, align 8
  %27 = call i64 @strlen(ptr noundef %26) #11
  %28 = call i32 @xstrncasecmp(ptr noundef %25, ptr noundef @.str.18, i64 noundef %27)
  %29 = icmp ne i32 %28, 0
  br i1 %29, label %33, label %30

30:                                               ; preds = %24
  store i32 1, ptr %4, align 4
  %31 = load i32, ptr %4, align 4
  %32 = or i32 %31, 16
  store i32 %32, ptr %4, align 4
  br label %43

33:                                               ; preds = %24
  %34 = load ptr, ptr %3, align 8
  %35 = load ptr, ptr %3, align 8
  %36 = call i64 @strlen(ptr noundef %35) #11
  %37 = call i32 @xstrncasecmp(ptr noundef %34, ptr noundef @.str.17, i64 noundef %36)
  %38 = icmp ne i32 %37, 0
  br i1 %38, label %42, label %39

39:                                               ; preds = %33
  store i32 1, ptr %4, align 4
  %40 = load i32, ptr %4, align 4
  %41 = or i32 %40, 48
  store i32 %41, ptr %4, align 4
  br label %42

42:                                               ; preds = %39, %33
  br label %43

43:                                               ; preds = %42, %30
  br label %44

44:                                               ; preds = %43, %23
  br label %45

45:                                               ; preds = %44, %16
  %46 = load i32, ptr %4, align 4
  store i32 %46, ptr %2, align 4
  store i32 1, ptr %5, align 4
  br label %47

47:                                               ; preds = %45, %8
  call void @llvm.lifetime.end.p0(i64 4, ptr %4) #10
  %48 = load i32, ptr %2, align 4
  ret i32 %48
}