; Function Attrs: nounwind uwtable
define dso_local range(i32 -1, 50) i32 @str_2_cluster_fed_states(ptr noundef %0) local_unnamed_addr #0 {
  %.not = icmp eq ptr %0, null
  br i1 %.not, label %2, label %4

2:                                                ; preds = %1
  %3 = tail call i32 (ptr, ...) @error(ptr noundef nonnull @.str.25) #19
  br label %16

4:                                                ; preds = %1
  %5 = tail call i64 @strlen(ptr noundef nonnull dereferenceable(1) %0) #20
  %6 = tail call i32 @xstrncasecmp(ptr noundef nonnull %0, ptr noundef nonnull @.str.26, i64 noundef %5) #19
  %.not14 = icmp eq i32 %6, 0
  br i1 %.not14, label %16, label %7

7:                                                ; preds = %4
  %8 = tail call i64 @strlen(ptr noundef nonnull dereferenceable(1) %0) #20
  %9 = tail call i32 @xstrncasecmp(ptr noundef nonnull %0, ptr noundef nonnull @.str.27, i64 noundef %8) #19
  %.not15 = icmp eq i32 %9, 0
  br i1 %.not15, label %16, label %10

10:                                               ; preds = %7
  %11 = tail call i64 @strlen(ptr noundef nonnull dereferenceable(1) %0) #20
  %12 = tail call i32 @xstrncasecmp(ptr noundef nonnull %0, ptr noundef nonnull @.str.18, i64 noundef %11) #19
  %.not16 = icmp eq i32 %12, 0
  br i1 %.not16, label %16, label %13

13:                                               ; preds = %10
  %14 = tail call i64 @strlen(ptr noundef nonnull dereferenceable(1) %0) #20
  %15 = tail call i32 @xstrncasecmp(ptr noundef nonnull %0, ptr noundef nonnull @.str.17, i64 noundef %14) #19
  %.not17 = icmp eq i32 %15, 0
  %spec.select = select i1 %.not17, i32 49, i32 0
  br label %16

16:                                               ; preds = %13, %4, %7, %10, %2
  %.012 = phi i32 [ -1, %2 ], [ 1, %4 ], [ 2, %7 ], [ 17, %10 ], [ %spec.select, %13 ]
  ret i32 %.012
}